; Function Attrs: mustprogress nofree nounwind willreturn memory(read) uwtable
define dso_local noundef zeroext i1 @_ZN14V3OutFormatter10tokenMatchEPKcS1_(ptr noundef readonly captures(none) %0, ptr noundef readonly captures(none) %1) local_unnamed_addr #12 align 2 {
  %3 = load i8, ptr %1, align 1, !tbaa !43
  %.not17 = icmp eq i8 %3, 0
  br i1 %.not17, label %._crit_edge, label %.lr.ph

.lr.ph:                                           ; preds = %2, %7
  %4 = phi i8 [ %10, %7 ], [ %3, %2 ]
  %.019 = phi ptr [ %9, %7 ], [ %1, %2 ]
  %.0918 = phi ptr [ %8, %7 ], [ %0, %2 ]
  %5 = load i8, ptr %.0918, align 1, !tbaa !43
  %6 = icmp eq i8 %4, %5
  br i1 %6, label %7, label %.critedge

7:                                                ; preds = %.lr.ph
  %8 = getelementptr inbounds nuw i8, ptr %.0918, i64 1
  %9 = getelementptr inbounds nuw i8, ptr %.019, i64 1
  %10 = load i8, ptr %9, align 1, !tbaa !43
  %.not = icmp eq i8 %10, 0
  br i1 %.not, label %._crit_edge, label %.lr.ph, !llvm.loop !175

._crit_edge:                                      ; preds = %7, %2
  %.09.lcssa = phi ptr [ %0, %2 ], [ %8, %7 ]
  %11 = load i8, ptr %.09.lcssa, align 1, !tbaa !43
  %.not14 = icmp eq i8 %11, 0
  br i1 %.not14, label %15, label %12

12:                                               ; preds = %._crit_edge
  %13 = sext i8 %11 to i32
  %14 = tail call i32 @isspace(i32 noundef %13) #33
  %.not15 = icmp eq i32 %14, 0
  br i1 %.not15, label %.critedge, label %15

15:                                               ; preds = %12, %._crit_edge
  br label %.critedge

.critedge:                                        ; preds = %.lr.ph, %12, %15
  %.010 = phi i1 [ true, %15 ], [ false, %12 ], [ false, %.lr.ph ]
  ret i1 %.010
}